target datalayout = "e-m:e-p270:32:32-p271:32:32-p272:64:64-i64:64-i128:128-f80:128-n8:16:32:64-S128"
target triple = "x86_64-pc-linux-gnu"

%struct.AVChannelLayout = type { i32, i32, %union.anon.1, ptr }
%union.anon.1 = type { i64 }
%struct.AVRational = type { i32, i32 }
%struct.AVFilterContext = type { ptr, ptr, ptr, ptr, ptr, i32, ptr, ptr, i32, ptr, ptr, i32, i32, ptr, ptr, ptr, ptr, i32, ptr, i32, i32 }
%struct.ColorizeContext = type { ptr, float, float, float, float, i32, [3 x i32], [4 x i32], [4 x i32], [2 x ptr] }
%struct.AVFrame = type { [8 x ptr], [8 x i32], ptr, i32, i32, i32, i32, i32, %struct.AVRational, i64, i64, %struct.AVRational, i32, ptr, i32, i32, [8 x ptr], ptr, i32, ptr, i32, i32, i32, i32, i32, i32, i32, i64, ptr, i32, ptr, ptr, i64, i64, i64, i64, ptr, %struct.AVChannelLayout, i64 }

; Function Attrs: inlinehint nounwind uwtable
define internal float @lerpf(float noundef %0, float noundef %1, float noundef %2) #7 {
  %4 = alloca float, align 4
  %5 = alloca float, align 4
  %6 = alloca float, align 4
  store float %0, ptr %4, align 4, !tbaa !41
  store float %1, ptr %5, align 4, !tbaa !41
  store float %2, ptr %6, align 4, !tbaa !41
  %7 = load float, ptr %4, align 4, !tbaa !41
  %8 = load float, ptr %5, align 4, !tbaa !41
  %9 = load float, ptr %4, align 4, !tbaa !41
  %10 = fsub nsz float %8, %9
  %11 = load float, ptr %6, align 4, !tbaa !41
  %12 = call nsz float @llvm.fmuladd.f32(float %10, float %11, float %7)
  ret float %12
}

; Function Attrs: nounwind uwtable
define internal i32 @colorizey_slice16(ptr noundef %0, ptr noundef %1, i32 noundef %2, i32 noundef %3) #1 {
  %5 = alloca ptr, align 8
  %6 = alloca ptr, align 8
  %7 = alloca i32, align 4
  %8 = alloca i32, align 4
  %9 = alloca ptr, align 8
  %10 = alloca ptr, align 8
  %11 = alloca i32, align 4
  %12 = alloca i32, align 4
  %13 = alloca i32, align 4
  %14 = alloca i32, align 4
  %15 = alloca i64, align 8
  %16 = alloca ptr, align 8
  %17 = alloca i32, align 4
  %18 = alloca float, align 4
  %19 = alloca i32, align 4
  %20 = alloca i32, align 4
  %21 = alloca i32, align 4
  store ptr %0, ptr %5, align 8, !tbaa !23
  store ptr %1, ptr %6, align 8, !tbaa !56
  store i32 %2, ptr %7, align 4, !tbaa !43
  store i32 %3, ptr %8, align 4, !tbaa !43
  call void @llvm.lifetime.start.p0(i64 8, ptr %9) #8
  %22 = load ptr, ptr %5, align 8, !tbaa !23
  %23 = getelementptr inbounds nuw %struct.AVFilterContext, ptr %22, i32 0, i32 9
  %24 = load ptr, ptr %23, align 8, !tbaa !24
  store ptr %24, ptr %9, align 8, !tbaa !34
  call void @llvm.lifetime.start.p0(i64 8, ptr %10) #8
  %25 = load ptr, ptr %6, align 8, !tbaa !56
  store ptr %25, ptr %10, align 8, !tbaa !9
  call void @llvm.lifetime.start.p0(i64 4, ptr %11) #8
  %26 = load ptr, ptr %9, align 8, !tbaa !34
  %27 = getelementptr inbounds nuw %struct.ColorizeContext, ptr %26, i32 0, i32 7
  %28 = getelementptr inbounds [4 x i32], ptr %27, i64 0, i64 0
  %29 = load i32, ptr %28, align 8, !tbaa !43
  store i32 %29, ptr %11, align 4, !tbaa !43
  call void @llvm.lifetime.start.p0(i64 4, ptr %12) #8
  %30 = load ptr, ptr %9, align 8, !tbaa !34
  %31 = getelementptr inbounds nuw %struct.ColorizeContext, ptr %30, i32 0, i32 8
  %32 = getelementptr inbounds [4 x i32], ptr %31, i64 0, i64 0
  %33 = load i32, ptr %32, align 8, !tbaa !43
  store i32 %33, ptr %12, align 4, !tbaa !43
  call void @llvm.lifetime.start.p0(i64 4, ptr %13) #8
  %34 = load i32, ptr %12, align 4, !tbaa !43
  %35 = load i32, ptr %7, align 4, !tbaa !43
  %36 = mul nsw i32 %34, %35
  %37 = load i32, ptr %8, align 4, !tbaa !43
  %38 = sdiv i32 %36, %37
  store i32 %38, ptr %13, align 4, !tbaa !43
  call void @llvm.lifetime.start.p0(i64 4, ptr %14) #8
  %39 = load i32, ptr %12, align 4, !tbaa !43
  %40 = load i32, ptr %7, align 4, !tbaa !43
  %41 = add nsw i32 %40, 1
  %42 = mul nsw i32 %39, %41
  %43 = load i32, ptr %8, align 4, !tbaa !43
  %44 = sdiv i32 %42, %43
  store i32 %44, ptr %14, align 4, !tbaa !43
  call void @llvm.lifetime.start.p0(i64 8, ptr %15) #8
  %45 = load ptr, ptr %10, align 8, !tbaa !9
  %46 = getelementptr inbounds nuw %struct.AVFrame, ptr %45, i32 0, i32 1
  %47 = getelementptr inbounds [8 x i32], ptr %46, i64 0, i64 0
  %48 = load i32, ptr %47, align 8, !tbaa !43
  %49 = sdiv i32 %48, 2
  %50 = sext i32 %49 to i64
  store i64 %50, ptr %15, align 8, !tbaa !61
  call void @llvm.lifetime.start.p0(i64 8, ptr %16) #8
  %51 = load ptr, ptr %10, align 8, !tbaa !9
  %52 = getelementptr inbounds nuw %struct.AVFrame, ptr %51, i32 0, i32 0
  %53 = getelementptr inbounds [8 x ptr], ptr %52, i64 0, i64 0
  %54 = load ptr, ptr %53, align 8, !tbaa !62
  %55 = load i32, ptr %13, align 4, !tbaa !43
  %56 = sext i32 %55 to i64
  %57 = load i64, ptr %15, align 8, !tbaa !61
  %58 = mul nsw i64 %56, %57
  %59 = getelementptr inbounds i16, ptr %54, i64 %58
  store ptr %59, ptr %16, align 8, !tbaa !68
  call void @llvm.lifetime.start.p0(i64 4, ptr %17) #8
  %60 = load ptr, ptr %9, align 8, !tbaa !34
  %61 = getelementptr inbounds nuw %struct.ColorizeContext, ptr %60, i32 0, i32 6
  %62 = getelementptr inbounds [3 x i32], ptr %61, i64 0, i64 0
  %63 = load i32, ptr %62, align 4, !tbaa !43
  store i32 %63, ptr %17, align 4, !tbaa !43
  call void @llvm.lifetime.start.p0(i64 4, ptr %18) #8
  %64 = load ptr, ptr %9, align 8, !tbaa !34
  %65 = getelementptr inbounds nuw %struct.ColorizeContext, ptr %64, i32 0, i32 4
  %66 = load float, ptr %65, align 4, !tbaa !63
  store float %66, ptr %18, align 4, !tbaa !41
  call void @llvm.lifetime.start.p0(i64 4, ptr %19) #8
  %67 = load i32, ptr %13, align 4, !tbaa !43
  store i32 %67, ptr %19, align 4, !tbaa !43
  br label %68

68:                                               ; preds = %102, %4
  %69 = load i32, ptr %19, align 4, !tbaa !43
  %70 = load i32, ptr %14, align 4, !tbaa !43
  %71 = icmp slt i32 %69, %70
  br i1 %71, label %73, label %72

72:                                               ; preds = %68
  store i32 2, ptr %20, align 4
  call void @llvm.lifetime.end.p0(i64 4, ptr %19) #8
  br label %105

73:                                               ; preds = %68
  call void @llvm.lifetime.start.p0(i64 4, ptr %21) #8
  store i32 0, ptr %21, align 4, !tbaa !43
  br label %74

74:                                               ; preds = %95, %73
  %75 = load i32, ptr %21, align 4, !tbaa !43
  %76 = load i32, ptr %11, align 4, !tbaa !43
  %77 = icmp slt i32 %75, %76
  br i1 %77, label %79, label %78

78:                                               ; preds = %74
  store i32 5, ptr %20, align 4
  call void @llvm.lifetime.end.p0(i64 4, ptr %21) #8
  br label %98

79:                                               ; preds = %74
  %80 = load i32, ptr %17, align 4, !tbaa !43
  %81 = sitofp i32 %80 to float
  %82 = load ptr, ptr %16, align 8, !tbaa !68
  %83 = load i32, ptr %21, align 4, !tbaa !43
  %84 = sext i32 %83 to i64
  %85 = getelementptr inbounds i16, ptr %82, i64 %84
  %86 = load i16, ptr %85, align 2, !tbaa !70
  %87 = uitofp i16 %86 to float
  %88 = load float, ptr %18, align 4, !tbaa !41
  %89 = call nsz float @lerpf(float noundef %81, float noundef %87, float noundef %88)
  %90 = fptoui float %89 to i16
  %91 = load ptr, ptr %16, align 8, !tbaa !68
  %92 = load i32, ptr %21, align 4, !tbaa !43
  %93 = sext i32 %92 to i64
  %94 = getelementptr inbounds i16, ptr %91, i64 %93
  store i16 %90, ptr %94, align 2, !tbaa !70
  br label %95

95:                                               ; preds = %79
  %96 = load i32, ptr %21, align 4, !tbaa !43
  %97 = add nsw i32 %96, 1
  store i32 %97, ptr %21, align 4, !tbaa !43
  br label %74, !llvm.loop !72

98:                                               ; preds = %78
  %99 = load i64, ptr %15, align 8, !tbaa !61
  %100 = load ptr, ptr %16, align 8, !tbaa !68
  %101 = getelementptr inbounds i16, ptr %100, i64 %99
  store ptr %101, ptr %16, align 8, !tbaa !68
  br label %102

102:                                              ; preds = %98
  %103 = load i32, ptr %19, align 4, !tbaa !43
  %104 = add nsw i32 %103, 1
  store i32 %104, ptr %19, align 4, !tbaa !43
  br label %68, !llvm.loop !73

105:                                              ; preds = %72
  store i32 1, ptr %20, align 4
  call void @llvm.lifetime.end.p0(i64 4, ptr %18) #8
  call void @llvm.lifetime.end.p0(i64 4, ptr %17) #8
  call void @llvm.lifetime.end.p0(i64 8, ptr %16) #8
  call void @llvm.lifetime.end.p0(i64 8, ptr %15) #8
  call void @llvm.lifetime.end.p0(i64 4, ptr %14) #8
  call void @llvm.lifetime.end.p0(i64 4, ptr %13) #8
  call void @llvm.lifetime.end.p0(i64 4, ptr %12) #8
  call void @llvm.lifetime.end.p0(i64 4, ptr %11) #8
  call void @llvm.lifetime.end.p0(i64 8, ptr %10) #8
  call void @llvm.lifetime.end.p0(i64 8, ptr %9) #8
  ret i32 0
}