; Function Attrs: nofree norecurse nosync nounwind memory(readwrite, inaccessiblemem: none) uwtable
define internal noundef i32 @colorizey_slice16(ptr noundef readonly captures(none) %0, ptr noundef readonly captures(none) %1, i32 noundef %2, i32 noundef %3) #5 {
  %5 = getelementptr inbounds nuw i8, ptr %0, i64 72
  %6 = load ptr, ptr %5, align 8, !tbaa !19
  %7 = getelementptr inbounds nuw i8, ptr %6, i64 40
  %8 = load i32, ptr %7, align 8, !tbaa !35
  %9 = getelementptr inbounds nuw i8, ptr %6, i64 56
  %10 = load i32, ptr %9, align 8, !tbaa !35
  %11 = mul nsw i32 %10, %2
  %12 = sdiv i32 %11, %3
  %13 = add nsw i32 %2, 1
  %14 = mul nsw i32 %10, %13
  %15 = sdiv i32 %14, %3
  %16 = getelementptr inbounds nuw i8, ptr %1, i64 64
  %17 = load i32, ptr %16, align 8, !tbaa !35
  %18 = sdiv i32 %17, 2
  %19 = sext i32 %18 to i64
  %20 = getelementptr inbounds nuw i8, ptr %6, i64 20
  %21 = load float, ptr %20, align 4, !tbaa !49
  %22 = icmp slt i32 %12, %15
  br i1 %22, label %.preheader.lr.ph, label %._crit_edge35

.preheader.lr.ph:                                 ; preds = %4
  %23 = getelementptr inbounds nuw i8, ptr %6, i64 28
  %24 = load i32, ptr %23, align 4, !tbaa !35
  %25 = icmp sgt i32 %8, 0
  %26 = sitofp i32 %24 to float
  br i1 %25, label %.preheader.us.preheader, label %._crit_edge35

.preheader.us.preheader:                          ; preds = %.preheader.lr.ph
  %27 = load ptr, ptr %1, align 8, !tbaa !50
  %28 = sext i32 %12 to i64
  %29 = mul nsw i64 %19, %28
  %30 = getelementptr inbounds i16, ptr %27, i64 %29
  %wide.trip.count = zext nneg i32 %8 to i64
  br label %.preheader.us

.preheader.us:                                    ; preds = %.preheader.us.preheader, %._crit_edge.us
  %.03034.us = phi i32 [ %39, %._crit_edge.us ], [ %12, %.preheader.us.preheader ]
  %.03133.us = phi ptr [ %38, %._crit_edge.us ], [ %30, %.preheader.us.preheader ]
  br label %31

31:                                               ; preds = %.preheader.us, %31
  %indvars.iv = phi i64 [ 0, %.preheader.us ], [ %indvars.iv.next, %31 ]
  %32 = getelementptr inbounds nuw i16, ptr %.03133.us, i64 %indvars.iv
  %33 = load i16, ptr %32, align 2, !tbaa !55
  %34 = uitofp i16 %33 to float
  %35 = fsub nsz float %34, %26
  %36 = tail call nsz noundef float @llvm.fmuladd.f32(float %35, float %21, float %26)
  %37 = fptoui float %36 to i16
  store i16 %37, ptr %32, align 2, !tbaa !55
  %indvars.iv.next = add nuw nsw i64 %indvars.iv, 1
  %exitcond.not = icmp eq i64 %indvars.iv.next, %wide.trip.count
  br i1 %exitcond.not, label %._crit_edge.us, label %31, !llvm.loop !57

._crit_edge.us:                                   ; preds = %31
  %38 = getelementptr inbounds i16, ptr %.03133.us, i64 %19
  %39 = add nsw i32 %.03034.us, 1
  %exitcond38.not = icmp eq i32 %39, %15
  br i1 %exitcond38.not, label %._crit_edge35, label %.preheader.us, !llvm.loop !58

._crit_edge35:                                    ; preds = %._crit_edge.us, %.preheader.lr.ph, %4
  ret i32 0
}